target datalayout = "e-m:e-p270:32:32-p271:32:32-p272:64:64-i64:64-i128:128-f80:128-n8:16:32:64-S128"
target triple = "x86_64-pc-linux-gnu"

%struct.AVProbeData = type { ptr, ptr, i32, ptr }

; Function Attrs: alwaysinline nounwind willreturn memory(none) uwtable
define internal i32 @av_bswap32(i32 noundef %0) #2 {
  %2 = alloca i32, align 4
  store i32 %0, ptr %2, align 4, !tbaa !15
  %3 = load i32, ptr %2, align 4, !tbaa !15
  %4 = shl i32 %3, 8
  %5 = and i32 %4, 65280
  %6 = load i32, ptr %2, align 4, !tbaa !15
  %7 = lshr i32 %6, 8
  %8 = and i32 %7, 255
  %9 = or i32 %5, %8
  %10 = shl i32 %9, 16
  %11 = load i32, ptr %2, align 4, !tbaa !15
  %12 = lshr i32 %11, 16
  %13 = shl i32 %12, 8
  %14 = and i32 %13, 65280
  %15 = load i32, ptr %2, align 4, !tbaa !15
  %16 = lshr i32 %15, 16
  %17 = lshr i32 %16, 8
  %18 = and i32 %17, 255
  %19 = or i32 %14, %18
  %20 = or i32 %10, %19
  ret i32 %20
}

; Function Attrs: nounwind uwtable
define internal i32 @ace_probe(ptr noundef %0) #0 {
  %2 = alloca i32, align 4
  %3 = alloca ptr, align 8
  %4 = alloca i32, align 4
  %5 = alloca i32, align 4
  store ptr %0, ptr %3, align 8, !tbaa !4
  call void @llvm.lifetime.start.p0(i64 4, ptr %4) #4
  %6 = load ptr, ptr %3, align 8, !tbaa !4
  %7 = getelementptr inbounds nuw %struct.AVProbeData, ptr %6, i32 0, i32 1
  %8 = load ptr, ptr %7, align 8, !tbaa !9
  %9 = load i32, ptr %8, align 1, !tbaa !13
  %10 = call i32 @av_bswap32(i32 noundef %9) #5
  %11 = icmp ne i32 %10, 1094796064
  br i1 %11, label %12, label %13

12:                                               ; preds = %1
  store i32 0, ptr %2, align 4
  store i32 1, ptr %5, align 4
  br label %48

13:                                               ; preds = %1
  %14 = load ptr, ptr %3, align 8, !tbaa !4
  %15 = getelementptr inbounds nuw %struct.AVProbeData, ptr %14, i32 0, i32 2
  %16 = load i32, ptr %15, align 8, !tbaa !14
  %17 = icmp slt i32 %16, 68
  br i1 %17, label %18, label %19

18:                                               ; preds = %13
  store i32 0, ptr %2, align 4
  store i32 1, ptr %5, align 4
  br label %48

19:                                               ; preds = %13
  %20 = load ptr, ptr %3, align 8, !tbaa !4
  %21 = getelementptr inbounds nuw %struct.AVProbeData, ptr %20, i32 0, i32 1
  %22 = load ptr, ptr %21, align 8, !tbaa !9
  %23 = getelementptr inbounds i8, ptr %22, i64 64
  %24 = load i32, ptr %23, align 1, !tbaa !13
  %25 = call i32 @av_bswap32(i32 noundef %24) #5
  store i32 %25, ptr %4, align 4, !tbaa !15
  %26 = load i32, ptr %4, align 4, !tbaa !15
  %27 = icmp ult i32 %26, 68
  br i1 %27, label %35, label %28

28:                                               ; preds = %19
  %29 = load i32, ptr %4, align 4, !tbaa !15
  %30 = load ptr, ptr %3, align 8, !tbaa !4
  %31 = getelementptr inbounds nuw %struct.AVProbeData, ptr %30, i32 0, i32 2
  %32 = load i32, ptr %31, align 8, !tbaa !14
  %33 = sub nsw i32 %32, 4
  %34 = icmp ugt i32 %29, %33
  br i1 %34, label %35, label %36

35:                                               ; preds = %28, %19
  store i32 0, ptr %2, align 4
  store i32 1, ptr %5, align 4
  br label %48

36:                                               ; preds = %28
  %37 = load ptr, ptr %3, align 8, !tbaa !4
  %38 = getelementptr inbounds nuw %struct.AVProbeData, ptr %37, i32 0, i32 1
  %39 = load ptr, ptr %38, align 8, !tbaa !9
  %40 = load i32, ptr %4, align 4, !tbaa !15
  %41 = zext i32 %40 to i64
  %42 = getelementptr inbounds nuw i8, ptr %39, i64 %41
  %43 = load i32, ptr %42, align 1, !tbaa !13
  %44 = call i32 @av_bswap32(i32 noundef %43) #5
  %45 = icmp ne i32 %44, 1095975712
  br i1 %45, label %46, label %47

46:                                               ; preds = %36
  store i32 0, ptr %2, align 4
  store i32 1, ptr %5, align 4
  br label %48

47:                                               ; preds = %36
  store i32 51, ptr %2, align 4
  store i32 1, ptr %5, align 4
  br label %48

48:                                               ; preds = %47, %46, %35, %18, %12
  call void @llvm.lifetime.end.p0(i64 4, ptr %4) #4
  %49 = load i32, ptr %2, align 4
  ret i32 %49
}