; Function Attrs: mustprogress nofree norecurse nosync nounwind willreturn memory(read, inaccessiblemem: none) uwtable
define internal range(i32 0, 52) i32 @ace_probe(ptr noundef readonly captures(none) %0) #0 {
  %2 = getelementptr inbounds nuw i8, ptr %0, i64 8
  %3 = load ptr, ptr %2, align 8, !tbaa !4
  %4 = load i32, ptr %3, align 1, !tbaa !11
  %.not = icmp eq i32 %4, 541278529
  br i1 %.not, label %5, label %20

5:                                                ; preds = %1
  %6 = getelementptr inbounds nuw i8, ptr %0, i64 16
  %7 = load i32, ptr %6, align 8, !tbaa !12
  %8 = icmp slt i32 %7, 68
  br i1 %8, label %20, label %9

9:                                                ; preds = %5
  %10 = getelementptr inbounds nuw i8, ptr %3, i64 64
  %11 = load i32, ptr %10, align 1, !tbaa !11
  %12 = tail call i32 @llvm.bswap.i32(i32 %11)
  %13 = icmp ult i32 %12, 68
  %14 = add nsw i32 %7, -4
  %15 = icmp ugt i32 %12, %14
  %or.cond = select i1 %13, i1 true, i1 %15
  br i1 %or.cond, label %20, label %16

16:                                               ; preds = %9
  %17 = zext nneg i32 %12 to i64
  %18 = getelementptr inbounds nuw i8, ptr %3, i64 %17
  %19 = load i32, ptr %18, align 1, !tbaa !11
  %.not10 = icmp eq i32 %19, 541283137
  %. = select i1 %.not10, i32 51, i32 0
  br label %20

20:                                               ; preds = %16, %9, %5, %1
  %.0 = phi i32 [ 0, %1 ], [ 0, %5 ], [ 0, %9 ], [ %., %16 ]
  ret i32 %.0
}